target datalayout = "e-m:e-p270:32:32-p271:32:32-p272:64:64-i64:64-i128:128-f80:128-n8:16:32:64-S128"
target triple = "x86_64-unknown-linux-gnu"

%class.b2Body = type { i32, i16, i32, %struct.b2Transform, %struct.b2Sweep, %struct.b2Vec2, float, %struct.b2Vec2, float, ptr, ptr, ptr, ptr, i32, ptr, ptr, float, float, float, float, float, float, float, float, %struct.b2BodyUserData }
%struct.b2Transform = type { %struct.b2Vec2, %struct.b2Rot }
%struct.b2Rot = type { float, float }
%struct.b2Sweep = type { %struct.b2Vec2, %struct.b2Vec2, %struct.b2Vec2, float, float, float }
%struct.b2Vec2 = type { float, float }
%struct.b2BodyUserData = type { i64 }
%struct.b2JointUserData = type { i64 }
%class.b2Joint = type { ptr, i32, ptr, ptr, %struct.b2JointEdge, %struct.b2JointEdge, ptr, ptr, i32, i8, i8, %struct.b2JointUserData }
%struct.b2JointEdge = type { ptr, ptr, ptr, ptr }
%struct.b2Color = type { float, float, float, float }

; Function Attrs: mustprogress nounwind uwtable
define linkonce_odr hidden void @_ZN7b2Color3SetEffff(ptr noundef nonnull align 4 dereferenceable(16) %this, float noundef %rIn, float noundef %gIn, float noundef %bIn, float noundef %aIn) #1 comdat align 2 {
entry:
  %this.addr = alloca ptr, align 8
  %rIn.addr = alloca float, align 4
  %gIn.addr = alloca float, align 4
  %bIn.addr = alloca float, align 4
  %aIn.addr = alloca float, align 4
  store ptr %this, ptr %this.addr, align 8
  store float %rIn, ptr %rIn.addr, align 4
  store float %gIn, ptr %gIn.addr, align 4
  store float %bIn, ptr %bIn.addr, align 4
  store float %aIn, ptr %aIn.addr, align 4
  %this1 = load ptr, ptr %this.addr, align 8
  %0 = load float, ptr %rIn.addr, align 4
  %r = getelementptr inbounds %struct.b2Color, ptr %this1, i32 0, i32 0
  store float %0, ptr %r, align 4
  %1 = load float, ptr %gIn.addr, align 4
  %g = getelementptr inbounds %struct.b2Color, ptr %this1, i32 0, i32 1
  store float %1, ptr %g, align 4
  %2 = load float, ptr %bIn.addr, align 4
  %b = getelementptr inbounds %struct.b2Color, ptr %this1, i32 0, i32 2
  store float %2, ptr %b, align 4
  %3 = load float, ptr %aIn.addr, align 4
  %a = getelementptr inbounds %struct.b2Color, ptr %this1, i32 0, i32 3
  store float %3, ptr %a, align 4
  ret void
}

; Function Attrs: mustprogress nounwind uwtable
define linkonce_odr hidden void @_ZN7b2ColorC2Ev(ptr noundef nonnull align 4 dereferenceable(16) %this) unnamed_addr #1 comdat align 2 {
entry:
  %this.addr = alloca ptr, align 8
  store ptr %this, ptr %this.addr, align 8
  ret void
}

; Function Attrs: mustprogress nounwind uwtable
define linkonce_odr hidden void @_ZN7b2ColorC2Effff(ptr noundef nonnull align 4 dereferenceable(16) %this, float noundef %rIn, float noundef %gIn, float noundef %bIn, float noundef %aIn) unnamed_addr #1 comdat align 2 {
entry:
  %this.addr = alloca ptr, align 8
  %rIn.addr = alloca float, align 4
  %gIn.addr = alloca float, align 4
  %bIn.addr = alloca float, align 4
  %aIn.addr = alloca float, align 4
  store ptr %this, ptr %this.addr, align 8
  store float %rIn, ptr %rIn.addr, align 4
  store float %gIn, ptr %gIn.addr, align 4
  store float %bIn, ptr %bIn.addr, align 4
  store float %aIn, ptr %aIn.addr, align 4
  %this1 = load ptr, ptr %this.addr, align 8
  %0 = load float, ptr %rIn.addr, align 4
  %r = getelementptr inbounds %struct.b2Color, ptr %this1, i32 0, i32 0
  store float %0, ptr %r, align 4
  %1 = load float, ptr %gIn.addr, align 4
  %g = getelementptr inbounds %struct.b2Color, ptr %this1, i32 0, i32 1
  store float %1, ptr %g, align 4
  %2 = load float, ptr %bIn.addr, align 4
  %b = getelementptr inbounds %struct.b2Color, ptr %this1, i32 0, i32 2
  store float %2, ptr %b, align 4
  %3 = load float, ptr %aIn.addr, align 4
  %a = getelementptr inbounds %struct.b2Color, ptr %this1, i32 0, i32 3
  store float %3, ptr %a, align 4
  ret void
}

; Function Attrs: mustprogress nounwind uwtable
define linkonce_odr hidden noundef nonnull align 4 dereferenceable(16) ptr @_ZNK6b2Body12GetTransformEv(ptr noundef nonnull align 8 dereferenceable(184) %this) #1 comdat align 2 {
entry:
  %this.addr = alloca ptr, align 8
  store ptr %this, ptr %this.addr, align 8
  %this1 = load ptr, ptr %this.addr, align 8
  %m_xf = getelementptr inbounds %class.b2Body, ptr %this1, i32 0, i32 3
  ret ptr %m_xf
}

; Function Attrs: mustprogress uwtable
define void @_ZNK7b2Joint4DrawEP6b2Draw(ptr noundef nonnull align 8 dereferenceable(128) %this, ptr noundef %draw) unnamed_addr #4 align 2 {
entry:
  %this.addr = alloca ptr, align 8
  %draw.addr = alloca ptr, align 8
  %xf1 = alloca ptr, align 8
  %xf2 = alloca ptr, align 8
  %x1 = alloca %struct.b2Vec2, align 4
  %x2 = alloca %struct.b2Vec2, align 4
  %p1 = alloca %struct.b2Vec2, align 4
  %p2 = alloca %struct.b2Vec2, align 4
  %color = alloca %struct.b2Color, align 4
  %pulley = alloca ptr, align 8
  %s1 = alloca %struct.b2Vec2, align 4
  %s2 = alloca %struct.b2Vec2, align 4
  %c = alloca %struct.b2Color, align 4
  store ptr %this, ptr %this.addr, align 8
  store ptr %draw, ptr %draw.addr, align 8
  %this1 = load ptr, ptr %this.addr, align 8
  %m_bodyA = getelementptr inbounds %class.b2Joint, ptr %this1, i32 0, i32 6
  %0 = load ptr, ptr %m_bodyA, align 8
  %call = call noundef nonnull align 4 dereferenceable(16) ptr @_ZNK6b2Body12GetTransformEv(ptr noundef nonnull align 8 dereferenceable(184) %0)
  store ptr %call, ptr %xf1, align 8
  %m_bodyB = getelementptr inbounds %class.b2Joint, ptr %this1, i32 0, i32 7
  %1 = load ptr, ptr %m_bodyB, align 8
  %call2 = call noundef nonnull align 4 dereferenceable(16) ptr @_ZNK6b2Body12GetTransformEv(ptr noundef nonnull align 8 dereferenceable(184) %1)
  store ptr %call2, ptr %xf2, align 8
  %2 = load ptr, ptr %xf1, align 8
  %p = getelementptr inbounds %struct.b2Transform, ptr %2, i32 0, i32 0
  call void @llvm.memcpy.p0.p0.i64(ptr align 4 %x1, ptr align 4 %p, i64 8, i1 false)
  %3 = load ptr, ptr %xf2, align 8
  %p3 = getelementptr inbounds %struct.b2Transform, ptr %3, i32 0, i32 0
  call void @llvm.memcpy.p0.p0.i64(ptr align 4 %x2, ptr align 4 %p3, i64 8, i1 false)
  %vtable = load ptr, ptr %this1, align 8
  %vfn = getelementptr inbounds ptr, ptr %vtable, i64 0
  %4 = load ptr, ptr %vfn, align 8
  %call4 = call <2 x float> %4(ptr noundef nonnull align 8 dereferenceable(128) %this1)
  store <2 x float> %call4, ptr %p1, align 4
  %vtable5 = load ptr, ptr %this1, align 8
  %vfn6 = getelementptr inbounds ptr, ptr %vtable5, i64 1
  %5 = load ptr, ptr %vfn6, align 8
  %call7 = call <2 x float> %5(ptr noundef nonnull align 8 dereferenceable(128) %this1)
  store <2 x float> %call7, ptr %p2, align 4
  call void @_ZN7b2ColorC2Effff(ptr noundef nonnull align 4 dereferenceable(16) %color, float noundef 5.000000e-01, float noundef 0x3FE99999A0000000, float noundef 0x3FE99999A0000000, float noundef 1.000000e+00)
  %m_type = getelementptr inbounds %class.b2Joint, ptr %this1, i32 0, i32 1
  %6 = load i32, ptr %m_type, align 8
  switch i32 %6, label %sw.default [
    i32 3, label %sw.bb
    i32 4, label %sw.bb10
    i32 5, label %sw.bb19
  ]

sw.bb:                                            ; preds = %entry
  %7 = load ptr, ptr %draw.addr, align 8
  %vtable8 = load ptr, ptr %7, align 8
  %vfn9 = getelementptr inbounds ptr, ptr %vtable8, i64 6
  %8 = load ptr, ptr %vfn9, align 8
  call void %8(ptr noundef nonnull align 8 dereferenceable(12) %7, ptr noundef nonnull align 4 dereferenceable(8) %p1, ptr noundef nonnull align 4 dereferenceable(8) %p2, ptr noundef nonnull align 4 dereferenceable(16) %color)
  br label %sw.epilog

sw.bb10:                                          ; preds = %entry
  store ptr %this1, ptr %pulley, align 8
  %9 = load ptr, ptr %pulley, align 8
  %call11 = call <2 x float> @_ZNK13b2PulleyJoint16GetGroundAnchorAEv(ptr noundef nonnull align 8 dereferenceable(256) %9)
  store <2 x float> %call11, ptr %s1, align 4
  %10 = load ptr, ptr %pulley, align 8
  %call12 = call <2 x float> @_ZNK13b2PulleyJoint16GetGroundAnchorBEv(ptr noundef nonnull align 8 dereferenceable(256) %10)
  store <2 x float> %call12, ptr %s2, align 4
  %11 = load ptr, ptr %draw.addr, align 8
  %vtable13 = load ptr, ptr %11, align 8
  %vfn14 = getelementptr inbounds ptr, ptr %vtable13, i64 6
  %12 = load ptr, ptr %vfn14, align 8
  call void %12(ptr noundef nonnull align 8 dereferenceable(12) %11, ptr noundef nonnull align 4 dereferenceable(8) %s1, ptr noundef nonnull align 4 dereferenceable(8) %p1, ptr noundef nonnull align 4 dereferenceable(16) %color)
  %13 = load ptr, ptr %draw.addr, align 8
  %vtable15 = load ptr, ptr %13, align 8
  %vfn16 = getelementptr inbounds ptr, ptr %vtable15, i64 6
  %14 = load ptr, ptr %vfn16, align 8
  call void %14(ptr noundef nonnull align 8 dereferenceable(12) %13, ptr noundef nonnull align 4 dereferenceable(8) %s2, ptr noundef nonnull align 4 dereferenceable(8) %p2, ptr noundef nonnull align 4 dereferenceable(16) %color)
  %15 = load ptr, ptr %draw.addr, align 8
  %vtable17 = load ptr, ptr %15, align 8
  %vfn18 = getelementptr inbounds ptr, ptr %vtable17, i64 6
  %16 = load ptr, ptr %vfn18, align 8
  call void %16(ptr noundef nonnull align 8 dereferenceable(12) %15, ptr noundef nonnull align 4 dereferenceable(8) %s1, ptr noundef nonnull align 4 dereferenceable(8) %s2, ptr noundef nonnull align 4 dereferenceable(16) %color)
  br label %sw.epilog

sw.bb19:                                          ; preds = %entry
  call void @_ZN7b2ColorC2Ev(ptr noundef nonnull align 4 dereferenceable(16) %c)
  call void @_ZN7b2Color3SetEffff(ptr noundef nonnull align 4 dereferenceable(16) %c, float noundef 0.000000e+00, float noundef 1.000000e+00, float noundef 0.000000e+00, float noundef 1.000000e+00)
  %17 = load ptr, ptr %draw.addr, align 8
  %vtable20 = load ptr, ptr %17, align 8
  %vfn21 = getelementptr inbounds ptr, ptr %vtable20, i64 8
  %18 = load ptr, ptr %vfn21, align 8
  call void %18(ptr noundef nonnull align 8 dereferenceable(12) %17, ptr noundef nonnull align 4 dereferenceable(8) %p1, float noundef 4.000000e+00, ptr noundef nonnull align 4 dereferenceable(16) %c)
  %19 = load ptr, ptr %draw.addr, align 8
  %vtable22 = load ptr, ptr %19, align 8
  %vfn23 = getelementptr inbounds ptr, ptr %vtable22, i64 8
  %20 = load ptr, ptr %vfn23, align 8
  call void %20(ptr noundef nonnull align 8 dereferenceable(12) %19, ptr noundef nonnull align 4 dereferenceable(8) %p2, float noundef 4.000000e+00, ptr noundef nonnull align 4 dereferenceable(16) %c)
  call void @_ZN7b2Color3SetEffff(ptr noundef nonnull align 4 dereferenceable(16) %c, float noundef 0x3FE99999A0000000, float noundef 0x3FE99999A0000000, float noundef 0x3FE99999A0000000, float noundef 1.000000e+00)
  %21 = load ptr, ptr %draw.addr, align 8
  %vtable24 = load ptr, ptr %21, align 8
  %vfn25 = getelementptr inbounds ptr, ptr %vtable24, i64 6
  %22 = load ptr, ptr %vfn25, align 8
  call void %22(ptr noundef nonnull align 8 dereferenceable(12) %21, ptr noundef nonnull align 4 dereferenceable(8) %p1, ptr noundef nonnull align 4 dereferenceable(8) %p2, ptr noundef nonnull align 4 dereferenceable(16) %c)
  br label %sw.epilog

sw.default:                                       ; preds = %entry
  %23 = load ptr, ptr %draw.addr, align 8
  %vtable26 = load ptr, ptr %23, align 8
  %vfn27 = getelementptr inbounds ptr, ptr %vtable26, i64 6
  %24 = load ptr, ptr %vfn27, align 8
  call void %24(ptr noundef nonnull align 8 dereferenceable(12) %23, ptr noundef nonnull align 4 dereferenceable(8) %x1, ptr noundef nonnull align 4 dereferenceable(8) %p1, ptr noundef nonnull align 4 dereferenceable(16) %color)
  %25 = load ptr, ptr %draw.addr, align 8
  %vtable28 = load ptr, ptr %25, align 8
  %vfn29 = getelementptr inbounds ptr, ptr %vtable28, i64 6
  %26 = load ptr, ptr %vfn29, align 8
  call void %26(ptr noundef nonnull align 8 dereferenceable(12) %25, ptr noundef nonnull align 4 dereferenceable(8) %p1, ptr noundef nonnull align 4 dereferenceable(8) %p2, ptr noundef nonnull align 4 dereferenceable(16) %color)
  %27 = load ptr, ptr %draw.addr, align 8
  %vtable30 = load ptr, ptr %27, align 8
  %vfn31 = getelementptr inbounds ptr, ptr %vtable30, i64 6
  %28 = load ptr, ptr %vfn31, align 8
  call void %28(ptr noundef nonnull align 8 dereferenceable(12) %27, ptr noundef nonnull align 4 dereferenceable(8) %x2, ptr noundef nonnull align 4 dereferenceable(8) %p2, ptr noundef nonnull align 4 dereferenceable(16) %color)
  br label %sw.epilog

sw.epilog:                                        ; preds = %sw.default, %sw.bb19, %sw.bb10, %sw.bb
  ret void
}