; Function Attrs: mustprogress uwtable
define void @_ZNK7b2Joint4DrawEP6b2Draw(ptr noundef nonnull align 8 dereferenceable(128) %this, ptr noundef %draw) unnamed_addr #4 align 2 {
entry:
  %x1 = alloca %struct.b2Vec2, align 8
  %x2 = alloca %struct.b2Vec2, align 8
  %p1 = alloca %struct.b2Vec2, align 8
  %p2 = alloca %struct.b2Vec2, align 8
  %color = alloca %struct.b2Color, align 16
  %s1 = alloca %struct.b2Vec2, align 8
  %s2 = alloca %struct.b2Vec2, align 8
  %c = alloca %struct.b2Color, align 16
  %m_bodyA = getelementptr inbounds i8, ptr %this, i64 96
  %0 = load ptr, ptr %m_bodyA, align 8
  %m_xf.i = getelementptr inbounds i8, ptr %0, i64 12
  %m_bodyB = getelementptr inbounds i8, ptr %this, i64 104
  %1 = load ptr, ptr %m_bodyB, align 8
  %m_xf.i11 = getelementptr inbounds i8, ptr %1, i64 12
  %2 = load i64, ptr %m_xf.i, align 4
  store i64 %2, ptr %x1, align 8
  %3 = load i64, ptr %m_xf.i11, align 4
  store i64 %3, ptr %x2, align 8
  %vtable = load ptr, ptr %this, align 8
  %4 = load ptr, ptr %vtable, align 8
  %call4 = tail call <2 x float> %4(ptr noundef nonnull align 8 dereferenceable(128) %this)
  store <2 x float> %call4, ptr %p1, align 8
  %vtable5 = load ptr, ptr %this, align 8
  %vfn6 = getelementptr inbounds i8, ptr %vtable5, i64 8
  %5 = load ptr, ptr %vfn6, align 8
  %call7 = tail call <2 x float> %5(ptr noundef nonnull align 8 dereferenceable(128) %this)
  store <2 x float> %call7, ptr %p2, align 8
  store <4 x float> <float 5.000000e-01, float 0x3FE99999A0000000, float 0x3FE99999A0000000, float 1.000000e+00>, ptr %color, align 16
  %m_type = getelementptr inbounds i8, ptr %this, i64 8
  %6 = load i32, ptr %m_type, align 8
  switch i32 %6, label %sw.default [
    i32 3, label %sw.bb
    i32 4, label %sw.bb10
    i32 5, label %sw.bb19
  ]

sw.bb:                                            ; preds = %entry
  %vtable8 = load ptr, ptr %draw, align 8
  %vfn9 = getelementptr inbounds i8, ptr %vtable8, i64 48
  %7 = load ptr, ptr %vfn9, align 8
  call void %7(ptr noundef nonnull align 8 dereferenceable(12) %draw, ptr noundef nonnull align 4 dereferenceable(8) %p1, ptr noundef nonnull align 4 dereferenceable(8) %p2, ptr noundef nonnull align 4 dereferenceable(16) %color)
  br label %sw.epilog

sw.bb10:                                          ; preds = %entry
  %call11 = tail call <2 x float> @_ZNK13b2PulleyJoint16GetGroundAnchorAEv(ptr noundef nonnull align 8 dereferenceable(256) %this)
  store <2 x float> %call11, ptr %s1, align 8
  %call12 = tail call <2 x float> @_ZNK13b2PulleyJoint16GetGroundAnchorBEv(ptr noundef nonnull align 8 dereferenceable(256) %this)
  store <2 x float> %call12, ptr %s2, align 8
  %vtable13 = load ptr, ptr %draw, align 8
  %vfn14 = getelementptr inbounds i8, ptr %vtable13, i64 48
  %8 = load ptr, ptr %vfn14, align 8
  call void %8(ptr noundef nonnull align 8 dereferenceable(12) %draw, ptr noundef nonnull align 4 dereferenceable(8) %s1, ptr noundef nonnull align 4 dereferenceable(8) %p1, ptr noundef nonnull align 4 dereferenceable(16) %color)
  %vtable15 = load ptr, ptr %draw, align 8
  %vfn16 = getelementptr inbounds i8, ptr %vtable15, i64 48
  %9 = load ptr, ptr %vfn16, align 8
  call void %9(ptr noundef nonnull align 8 dereferenceable(12) %draw, ptr noundef nonnull align 4 dereferenceable(8) %s2, ptr noundef nonnull align 4 dereferenceable(8) %p2, ptr noundef nonnull align 4 dereferenceable(16) %color)
  %vtable17 = load ptr, ptr %draw, align 8
  %vfn18 = getelementptr inbounds i8, ptr %vtable17, i64 48
  %10 = load ptr, ptr %vfn18, align 8
  call void %10(ptr noundef nonnull align 8 dereferenceable(12) %draw, ptr noundef nonnull align 4 dereferenceable(8) %s1, ptr noundef nonnull align 4 dereferenceable(8) %s2, ptr noundef nonnull align 4 dereferenceable(16) %color)
  br label %sw.epilog

sw.bb19:                                          ; preds = %entry
  store <4 x float> <float 0.000000e+00, float 1.000000e+00, float 0.000000e+00, float 1.000000e+00>, ptr %c, align 16
  %vtable20 = load ptr, ptr %draw, align 8
  %vfn21 = getelementptr inbounds i8, ptr %vtable20, i64 64
  %11 = load ptr, ptr %vfn21, align 8
  call void %11(ptr noundef nonnull align 8 dereferenceable(12) %draw, ptr noundef nonnull align 4 dereferenceable(8) %p1, float noundef 4.000000e+00, ptr noundef nonnull align 4 dereferenceable(16) %c)
  %vtable22 = load ptr, ptr %draw, align 8
  %vfn23 = getelementptr inbounds i8, ptr %vtable22, i64 64
  %12 = load ptr, ptr %vfn23, align 8
  call void %12(ptr noundef nonnull align 8 dereferenceable(12) %draw, ptr noundef nonnull align 4 dereferenceable(8) %p2, float noundef 4.000000e+00, ptr noundef nonnull align 4 dereferenceable(16) %c)
  store <4 x float> <float 0x3FE99999A0000000, float 0x3FE99999A0000000, float 0x3FE99999A0000000, float 1.000000e+00>, ptr %c, align 16
  %vtable24 = load ptr, ptr %draw, align 8
  %vfn25 = getelementptr inbounds i8, ptr %vtable24, i64 48
  %13 = load ptr, ptr %vfn25, align 8
  call void %13(ptr noundef nonnull align 8 dereferenceable(12) %draw, ptr noundef nonnull align 4 dereferenceable(8) %p1, ptr noundef nonnull align 4 dereferenceable(8) %p2, ptr noundef nonnull align 4 dereferenceable(16) %c)
  br label %sw.epilog

sw.default:                                       ; preds = %entry
  %vtable26 = load ptr, ptr %draw, align 8
  %vfn27 = getelementptr inbounds i8, ptr %vtable26, i64 48
  %14 = load ptr, ptr %vfn27, align 8
  call void %14(ptr noundef nonnull align 8 dereferenceable(12) %draw, ptr noundef nonnull align 4 dereferenceable(8) %x1, ptr noundef nonnull align 4 dereferenceable(8) %p1, ptr noundef nonnull align 4 dereferenceable(16) %color)
  %vtable28 = load ptr, ptr %draw, align 8
  %vfn29 = getelementptr inbounds i8, ptr %vtable28, i64 48
  %15 = load ptr, ptr %vfn29, align 8
  call void %15(ptr noundef nonnull align 8 dereferenceable(12) %draw, ptr noundef nonnull align 4 dereferenceable(8) %p1, ptr noundef nonnull align 4 dereferenceable(8) %p2, ptr noundef nonnull align 4 dereferenceable(16) %color)
  %vtable30 = load ptr, ptr %draw, align 8
  %vfn31 = getelementptr inbounds i8, ptr %vtable30, i64 48
  %16 = load ptr, ptr %vfn31, align 8
  call void %16(ptr noundef nonnull align 8 dereferenceable(12) %draw, ptr noundef nonnull align 4 dereferenceable(8) %x2, ptr noundef nonnull align 4 dereferenceable(8) %p2, ptr noundef nonnull align 4 dereferenceable(16) %color)
  br label %sw.epilog

sw.epilog:                                        ; preds = %sw.default, %sw.bb19, %sw.bb10, %sw.bb
  ret void
}